target datalayout = "e-m:e-p270:32:32-p271:32:32-p272:64:64-i64:64-i128:128-f80:128-n8:16:32:64-S128"
target triple = "x86_64-unknown-linux-gnu"

%"class.std::basic_string_view" = type { i64, ptr }
%"class.arrow::util::Voidify" = type { i8 }
%"class.arrow::util::ArrowLog" = type <{ %"class.arrow::util::ArrowLogBase", ptr, i8, [7 x i8] }>
%"class.arrow::util::ArrowLogBase" = type { ptr }

@_ZN5arrowL19kInt64DecimalDigitsE = internal constant i64 18, align 8
@.str.32 = private unnamed_addr constant [119 x i8] c"generated/home/dtcxzyw/WorkSpace/Projects/compilers/llvm-opt-benchmark/bench/arrow/arrow/cpp/src/arrow/util/decimal.cc\00", align 1
@.str.33 = private unnamed_addr constant [90 x i8] c" Check failed: internal::ParseValue<UInt64Type>(input.data() + posn, group_size, &chunk) \00", align 1

; Function Attrs: mustprogress nounwind uwtable
define linkonce_odr void @_ZN5arrow4util7VoidifyanERNS0_12ArrowLogBaseE(ptr noundef nonnull align 1 dereferenceable(1) %this, ptr noundef nonnull align 8 dereferenceable(8) %0) #2 comdat align 2 {
entry:
  %this.addr = alloca ptr, align 8
  %.addr = alloca ptr, align 8
  store ptr %this, ptr %this.addr, align 8
  store ptr %0, ptr %.addr, align 8
  ret void
}

; Function Attrs: mustprogress uwtable
define linkonce_odr noundef nonnull align 8 dereferenceable(8) ptr @_ZN5arrow4util12ArrowLogBaselsIA90_cEERS1_RKT_(ptr noundef nonnull align 8 dereferenceable(8) %this, ptr noundef nonnull align 1 dereferenceable(90) %t) #0 comdat align 2 {
entry:
  %this.addr = alloca ptr, align 8
  %t.addr = alloca ptr, align 8
  store ptr %this, ptr %this.addr, align 8
  store ptr %t, ptr %t.addr, align 8
  %this1 = load ptr, ptr %this.addr, align 8
  %vtable = load ptr, ptr %this1, align 8
  %vfn = getelementptr inbounds ptr, ptr %vtable, i64 2
  %0 = load ptr, ptr %vfn, align 8
  %call = call noundef zeroext i1 %0(ptr noundef nonnull align 8 dereferenceable(8) %this1)
  br i1 %call, label %if.then, label %if.end

if.then:                                          ; preds = %entry
  %vtable2 = load ptr, ptr %this1, align 8
  %vfn3 = getelementptr inbounds ptr, ptr %vtable2, i64 3
  %1 = load ptr, ptr %vfn3, align 8
  %call4 = call noundef nonnull align 8 dereferenceable(8) ptr %1(ptr noundef nonnull align 8 dereferenceable(8) %this1)
  %2 = load ptr, ptr %t.addr, align 8
  %arraydecay = getelementptr inbounds [90 x i8], ptr %2, i64 0, i64 0
  %call5 = call noundef nonnull align 8 dereferenceable(8) ptr @_ZStlsISt11char_traitsIcEERSt13basic_ostreamIcT_ES5_PKc(ptr noundef nonnull align 8 dereferenceable(8) %call4, ptr noundef %arraydecay)
  br label %if.end

if.end:                                           ; preds = %if.then, %entry
  ret ptr %this1
}

; Function Attrs: mustprogress nounwind uwtable
define linkonce_odr void @_ZN5arrow4util7VoidifyC2Ev(ptr noundef nonnull align 1 dereferenceable(1) %this) unnamed_addr #2 comdat align 2 {
entry:
  %this.addr = alloca ptr, align 8
  store ptr %this, ptr %this.addr, align 8
  ret void
}

; Function Attrs: mustprogress nounwind uwtable
define linkonce_odr noundef ptr @_ZNKSt17basic_string_viewIcSt11char_traitsIcEE4dataEv(ptr noundef nonnull align 8 dereferenceable(16) %this) #2 comdat align 2 {
entry:
  %this.addr = alloca ptr, align 8
  store ptr %this, ptr %this.addr, align 8
  %this1 = load ptr, ptr %this.addr, align 8
  %_M_str = getelementptr inbounds %"class.std::basic_string_view", ptr %this1, i32 0, i32 1
  %0 = load ptr, ptr %_M_str, align 8
  ret ptr %0
}

; Function Attrs: mustprogress nounwind uwtable
define linkonce_odr noundef nonnull align 8 dereferenceable(8) ptr @_ZSt3minImERKT_S2_S2_(ptr noundef nonnull align 8 dereferenceable(8) %__a, ptr noundef nonnull align 8 dereferenceable(8) %__b) #2 comdat {
entry:
  %retval = alloca ptr, align 8
  %__a.addr = alloca ptr, align 8
  %__b.addr = alloca ptr, align 8
  store ptr %__a, ptr %__a.addr, align 8
  store ptr %__b, ptr %__b.addr, align 8
  %0 = load ptr, ptr %__b.addr, align 8
  %1 = load i64, ptr %0, align 8
  %2 = load ptr, ptr %__a.addr, align 8
  %3 = load i64, ptr %2, align 8
  %cmp = icmp ult i64 %1, %3
  br i1 %cmp, label %if.then, label %if.end

if.then:                                          ; preds = %entry
  %4 = load ptr, ptr %__b.addr, align 8
  store ptr %4, ptr %retval, align 8
  br label %return

if.end:                                           ; preds = %entry
  %5 = load ptr, ptr %__a.addr, align 8
  store ptr %5, ptr %retval, align 8
  br label %return

return:                                           ; preds = %if.end, %if.then
  %6 = load ptr, ptr %retval, align 8
  ret ptr %6
}

; Function Attrs: mustprogress nounwind uwtable
define linkonce_odr noundef i64 @_ZNKSt17basic_string_viewIcSt11char_traitsIcEE4sizeEv(ptr noundef nonnull align 8 dereferenceable(16) %this) #2 comdat align 2 {
entry:
  %this.addr = alloca ptr, align 8
  store ptr %this, ptr %this.addr, align 8
  %this1 = load ptr, ptr %this.addr, align 8
  %_M_len = getelementptr inbounds %"class.std::basic_string_view", ptr %this1, i32 0, i32 0
  %0 = load i64, ptr %_M_len, align 8
  ret i64 %0
}

; Function Attrs: mustprogress uwtable
define internal void @_ZN5arrowL11ShiftAndAddESt17basic_string_viewIcSt11char_traitsIcEEPmm(i64 %input.coerce0, ptr %input.coerce1, ptr noundef %out, i64 noundef %out_size) #0 personality ptr @__gxx_personality_v0 {
entry:
  %input = alloca %"class.std::basic_string_view", align 8
  %out.addr = alloca ptr, align 8
  %out_size.addr = alloca i64, align 8
  %posn = alloca i64, align 8
  %group_size = alloca i64, align 8
  %ref.tmp = alloca i64, align 8
  %multiple = alloca i64, align 8
  %chunk = alloca i64, align 8
  %ref.tmp6 = alloca %"class.arrow::util::Voidify", align 1
  %ref.tmp7 = alloca %"class.arrow::util::ArrowLog", align 8
  %cleanup.cond = alloca i1, align 1
  %exn.slot = alloca ptr, align 8
  %ehselector.slot = alloca i32, align 4
  %i = alloca i64, align 8
  %tmp = alloca i128, align 16
  %0 = getelementptr inbounds { i64, ptr }, ptr %input, i32 0, i32 0
  store i64 %input.coerce0, ptr %0, align 8
  %1 = getelementptr inbounds { i64, ptr }, ptr %input, i32 0, i32 1
  store ptr %input.coerce1, ptr %1, align 8
  store ptr %out, ptr %out.addr, align 8
  store i64 %out_size, ptr %out_size.addr, align 8
  store i64 0, ptr %posn, align 8
  br label %for.cond

for.cond:                                         ; preds = %for.end, %entry
  %2 = load i64, ptr %posn, align 8
  %call = call noundef i64 @_ZNKSt17basic_string_viewIcSt11char_traitsIcEE4sizeEv(ptr noundef nonnull align 8 dereferenceable(16) %input) #12
  %cmp = icmp ult i64 %2, %call
  br i1 %cmp, label %for.body, label %for.end23

for.body:                                         ; preds = %for.cond
  %call1 = call noundef i64 @_ZNKSt17basic_string_viewIcSt11char_traitsIcEE4sizeEv(ptr noundef nonnull align 8 dereferenceable(16) %input) #12
  %3 = load i64, ptr %posn, align 8
  %sub = sub i64 %call1, %3
  store i64 %sub, ptr %ref.tmp, align 8
  %call2 = call noundef nonnull align 8 dereferenceable(8) ptr @_ZSt3minImERKT_S2_S2_(ptr noundef nonnull align 8 dereferenceable(8) @_ZN5arrowL19kInt64DecimalDigitsE, ptr noundef nonnull align 8 dereferenceable(8) %ref.tmp)
  %4 = load i64, ptr %call2, align 8
  store i64 %4, ptr %group_size, align 8
  %5 = load i64, ptr %group_size, align 8
  %arrayidx = getelementptr inbounds [19 x i64], ptr @_ZN5arrowL18kUInt64PowersOfTenE, i64 0, i64 %5
  %6 = load i64, ptr %arrayidx, align 8
  store i64 %6, ptr %multiple, align 8
  store i64 0, ptr %chunk, align 8
  %call3 = call noundef ptr @_ZNKSt17basic_string_viewIcSt11char_traitsIcEE4dataEv(ptr noundef nonnull align 8 dereferenceable(16) %input) #12
  %7 = load i64, ptr %posn, align 8
  %add.ptr = getelementptr inbounds i8, ptr %call3, i64 %7
  %8 = load i64, ptr %group_size, align 8
  %call4 = call noundef zeroext i1 @_ZN5arrow8internal10ParseValueINS_10UInt64TypeEEENSt9enable_ifIXsr22is_parameter_free_typeIT_EE5valueEbE4typeEPKcmPNS0_15StringConverterIS4_vE10value_typeE(ptr noundef %add.ptr, i64 noundef %8, ptr noundef %chunk)
  %lnot = xor i1 %call4, true
  %lnot5 = xor i1 %lnot, true
  store i1 false, ptr %cleanup.cond, align 1
  br i1 %lnot5, label %cond.true, label %cond.false

cond.true:                                        ; preds = %for.body
  br label %cond.end

cond.false:                                       ; preds = %for.body
  call void @_ZN5arrow4util7VoidifyC2Ev(ptr noundef nonnull align 1 dereferenceable(1) %ref.tmp6)
  call void @_ZN5arrow4util8ArrowLogC1EPKciNS0_13ArrowLogLevelE(ptr noundef nonnull align 8 dereferenceable(17) %ref.tmp7, ptr noundef @.str.32, i32 noundef 533, i32 noundef 3)
  store i1 true, ptr %cleanup.cond, align 1
  %call8 = invoke noundef nonnull align 8 dereferenceable(8) ptr @_ZN5arrow4util12ArrowLogBaselsIA90_cEERS1_RKT_(ptr noundef nonnull align 8 dereferenceable(8) %ref.tmp7, ptr noundef nonnull align 1 dereferenceable(90) @.str.33)
          to label %invoke.cont unwind label %lpad

invoke.cont:                                      ; preds = %cond.false
  invoke void @_ZN5arrow4util7VoidifyanERNS0_12ArrowLogBaseE(ptr noundef nonnull align 1 dereferenceable(1) %ref.tmp6, ptr noundef nonnull align 8 dereferenceable(8) %call8)
          to label %invoke.cont9 unwind label %lpad

invoke.cont9:                                     ; preds = %invoke.cont
  br label %cond.end

cond.end:                                         ; preds = %invoke.cont9, %cond.true
  %cleanup.is_active = load i1, ptr %cleanup.cond, align 1
  br i1 %cleanup.is_active, label %cleanup.action, label %cleanup.done

cleanup.action:                                   ; preds = %cond.end
  call void @_ZN5arrow4util8ArrowLogD1Ev(ptr noundef nonnull align 8 dereferenceable(17) %ref.tmp7) #12
  br label %cleanup.done

cleanup.done:                                     ; preds = %cleanup.action, %cond.end
  store i64 0, ptr %i, align 8
  br label %for.cond13

for.cond13:                                       ; preds = %for.inc, %cleanup.done
  %9 = load i64, ptr %i, align 8
  %10 = load i64, ptr %out_size.addr, align 8
  %cmp14 = icmp ult i64 %9, %10
  br i1 %cmp14, label %for.body15, label %for.end

for.body15:                                       ; preds = %for.cond13
  %11 = load ptr, ptr %out.addr, align 8
  %12 = load i64, ptr %i, align 8
  %arrayidx16 = getelementptr inbounds i64, ptr %11, i64 %12
  %13 = load i64, ptr %arrayidx16, align 8
  %conv = zext i64 %13 to i128
  store i128 %conv, ptr %tmp, align 16
  %14 = load i64, ptr %multiple, align 8
  %conv17 = zext i64 %14 to i128
  %15 = load i128, ptr %tmp, align 16
  %mul = mul i128 %15, %conv17
  store i128 %mul, ptr %tmp, align 16
  %16 = load i64, ptr %chunk, align 8
  %conv18 = zext i64 %16 to i128
  %17 = load i128, ptr %tmp, align 16
  %add = add i128 %17, %conv18
  store i128 %add, ptr %tmp, align 16
  %18 = load i128, ptr %tmp, align 16
  %and = and i128 %18, 18446744073709551615
  %conv19 = trunc i128 %and to i64
  %19 = load ptr, ptr %out.addr, align 8
  %20 = load i64, ptr %i, align 8
  %arrayidx20 = getelementptr inbounds i64, ptr %19, i64 %20
  store i64 %conv19, ptr %arrayidx20, align 8
  %21 = load i128, ptr %tmp, align 16
  %shr = lshr i128 %21, 64
  %conv21 = trunc i128 %shr to i64
  store i64 %conv21, ptr %chunk, align 8
  br label %for.inc

for.inc:                                          ; preds = %for.body15
  %22 = load i64, ptr %i, align 8
  %inc = add i64 %22, 1
  store i64 %inc, ptr %i, align 8
  br label %for.cond13, !llvm.loop !132

lpad:                                             ; preds = %invoke.cont, %cond.false
  %23 = landingpad { ptr, i32 }
          cleanup
  %24 = extractvalue { ptr, i32 } %23, 0
  store ptr %24, ptr %exn.slot, align 8
  %25 = extractvalue { ptr, i32 } %23, 1
  store i32 %25, ptr %ehselector.slot, align 4
  %cleanup.is_active10 = load i1, ptr %cleanup.cond, align 1
  br i1 %cleanup.is_active10, label %cleanup.action11, label %cleanup.done12

cleanup.action11:                                 ; preds = %lpad
  call void @_ZN5arrow4util8ArrowLogD1Ev(ptr noundef nonnull align 8 dereferenceable(17) %ref.tmp7) #12
  br label %cleanup.done12

cleanup.done12:                                   ; preds = %cleanup.action11, %lpad
  br label %eh.resume

for.end:                                          ; preds = %for.cond13
  %26 = load i64, ptr %group_size, align 8
  %27 = load i64, ptr %posn, align 8
  %add22 = add i64 %27, %26
  store i64 %add22, ptr %posn, align 8
  br label %for.cond, !llvm.loop !133

for.end23:                                        ; preds = %for.cond
  ret void

eh.resume:                                        ; preds = %cleanup.done12
  %exn = load ptr, ptr %exn.slot, align 8
  %sel = load i32, ptr %ehselector.slot, align 4
  %lpad.val = insertvalue { ptr, i32 } poison, ptr %exn, 0
  %lpad.val24 = insertvalue { ptr, i32 } %lpad.val, i32 %sel, 1
  resume { ptr, i32 } %lpad.val24
}