; Function Attrs: mustprogress uwtable
define internal fastcc void @_ZN5arrowL11ShiftAndAddESt17basic_string_viewIcSt11char_traitsIcEEPmm(i64 %input.coerce0, ptr %input.coerce1, ptr nocapture noundef %out, i64 noundef %out_size) unnamed_addr #0 personality ptr @__gxx_personality_v0 {
entry:
  %chunk = alloca i64, align 8
  %ref.tmp7 = alloca %"class.arrow::util::ArrowLog", align 8
  %cmp22.not = icmp eq i64 %input.coerce0, 0
  br i1 %cmp22.not, label %for.end23, label %for.body.lr.ph

for.body.lr.ph:                                   ; preds = %entry
  %cmp1419.not = icmp eq i64 %out_size, 0
  br i1 %cmp1419.not, label %for.body, label %for.body.us

for.body.us:                                      ; preds = %for.body.lr.ph, %for.cond13.for.end_crit_edge.us
  %posn.023.us = phi i64 [ %add22.us, %for.cond13.for.end_crit_edge.us ], [ 0, %for.body.lr.ph ]
  %sub.us = sub i64 %input.coerce0, %posn.023.us
  %.sroa.speculated.us = call i64 @llvm.umin.i64(i64 %sub.us, i64 18)
  %arrayidx.us = getelementptr inbounds [19 x i64], ptr @_ZN5arrowL18kUInt64PowersOfTenE, i64 0, i64 %.sroa.speculated.us
  %0 = load i64, ptr %arrayidx.us, align 8
  store i64 0, ptr %chunk, align 8
  %add.ptr.us = getelementptr inbounds i8, ptr %input.coerce1, i64 %posn.023.us
  %call4.us = call noundef zeroext i1 @_ZN5arrow8internal10ParseValueINS_10UInt64TypeEEENSt9enable_ifIXsr22is_parameter_free_typeIT_EE5valueEbE4typeEPKcmPNS0_15StringConverterIS4_vE10value_typeE(ptr noundef %add.ptr.us, i64 noundef %.sroa.speculated.us, ptr noundef nonnull %chunk)
  br i1 %call4.us, label %cleanup.done.us, label %cond.false.us

cond.false.us:                                    ; preds = %for.body.us
  call void @_ZN5arrow4util8ArrowLogC1EPKciNS0_13ArrowLogLevelE(ptr noundef nonnull align 8 dereferenceable(17) %ref.tmp7, ptr noundef nonnull @.str.32, i32 noundef 533, i32 noundef 3)
  %vtable.i.us = load ptr, ptr %ref.tmp7, align 8
  %vfn.i.us = getelementptr inbounds i8, ptr %vtable.i.us, i64 16
  %1 = load ptr, ptr %vfn.i.us, align 8
  %call.i13.us = invoke noundef zeroext i1 %1(ptr noundef nonnull align 8 dereferenceable(8) %ref.tmp7)
          to label %call.i.noexc.us unwind label %lpad.split.us

call.i.noexc.us:                                  ; preds = %cond.false.us
  br i1 %call.i13.us, label %if.then.i.us, label %cleanup.action.us

if.then.i.us:                                     ; preds = %call.i.noexc.us
  %vtable2.i.us = load ptr, ptr %ref.tmp7, align 8
  %vfn3.i.us = getelementptr inbounds i8, ptr %vtable2.i.us, i64 24
  %2 = load ptr, ptr %vfn3.i.us, align 8
  %call4.i14.us = invoke noundef nonnull align 8 dereferenceable(8) ptr %2(ptr noundef nonnull align 8 dereferenceable(8) %ref.tmp7)
          to label %call4.i.noexc.us unwind label %lpad.split.us

call4.i.noexc.us:                                 ; preds = %if.then.i.us
  %call5.i15.us = invoke noundef nonnull align 8 dereferenceable(8) ptr @_ZStlsISt11char_traitsIcEERSt13basic_ostreamIcT_ES5_PKc(ptr noundef nonnull align 8 dereferenceable(8) %call4.i14.us, ptr noundef nonnull @.str.33)
          to label %cleanup.action.us unwind label %lpad.split.us

cleanup.action.us:                                ; preds = %call4.i.noexc.us, %call.i.noexc.us
  call void @_ZN5arrow4util8ArrowLogD1Ev(ptr noundef nonnull align 8 dereferenceable(17) %ref.tmp7) #18
  br label %cleanup.done.us

cleanup.done.us:                                  ; preds = %cleanup.action.us, %for.body.us
  %chunk.promoted.us = load i64, ptr %chunk, align 8
  %conv17.us = zext i64 %0 to i128
  br label %for.body15.us

for.body15.us:                                    ; preds = %cleanup.done.us, %for.body15.us
  %i.021.us = phi i64 [ 0, %cleanup.done.us ], [ %inc.us, %for.body15.us ]
  %conv211820.us = phi i64 [ %chunk.promoted.us, %cleanup.done.us ], [ %conv21.us, %for.body15.us ]
  %arrayidx16.us = getelementptr inbounds i64, ptr %out, i64 %i.021.us
  %3 = load i64, ptr %arrayidx16.us, align 8
  %conv.us = zext i64 %3 to i128
  %mul.us = mul nuw i128 %conv.us, %conv17.us
  %conv18.us = zext i64 %conv211820.us to i128
  %add.us = add nuw i128 %mul.us, %conv18.us
  %conv19.us = trunc i128 %add.us to i64
  store i64 %conv19.us, ptr %arrayidx16.us, align 8
  %shr.us = lshr i128 %add.us, 64
  %conv21.us = trunc i128 %shr.us to i64
  %inc.us = add nuw i64 %i.021.us, 1
  %exitcond.not = icmp eq i64 %inc.us, %out_size
  br i1 %exitcond.not, label %for.cond13.for.end_crit_edge.us, label %for.body15.us, !llvm.loop !216

for.cond13.for.end_crit_edge.us:                  ; preds = %for.body15.us
  store i64 %conv21.us, ptr %chunk, align 8
  %add22.us = add i64 %.sroa.speculated.us, %posn.023.us
  %cmp.us = icmp ult i64 %add22.us, %input.coerce0
  br i1 %cmp.us, label %for.body.us, label %for.end23, !llvm.loop !217

lpad.split.us:                                    ; preds = %call4.i.noexc.us, %if.then.i.us, %cond.false.us
  %4 = landingpad { ptr, i32 }
          cleanup
  br label %lpad

for.body:                                         ; preds = %for.body.lr.ph, %cleanup.done
  %posn.023 = phi i64 [ %add22, %cleanup.done ], [ 0, %for.body.lr.ph ]
  %sub = sub i64 %input.coerce0, %posn.023
  %.sroa.speculated = call i64 @llvm.umin.i64(i64 %sub, i64 18)
  store i64 0, ptr %chunk, align 8
  %add.ptr = getelementptr inbounds i8, ptr %input.coerce1, i64 %posn.023
  %call4 = call noundef zeroext i1 @_ZN5arrow8internal10ParseValueINS_10UInt64TypeEEENSt9enable_ifIXsr22is_parameter_free_typeIT_EE5valueEbE4typeEPKcmPNS0_15StringConverterIS4_vE10value_typeE(ptr noundef %add.ptr, i64 noundef %.sroa.speculated, ptr noundef nonnull %chunk)
  br i1 %call4, label %cleanup.done, label %cond.false

cond.false:                                       ; preds = %for.body
  call void @_ZN5arrow4util8ArrowLogC1EPKciNS0_13ArrowLogLevelE(ptr noundef nonnull align 8 dereferenceable(17) %ref.tmp7, ptr noundef nonnull @.str.32, i32 noundef 533, i32 noundef 3)
  %vtable.i = load ptr, ptr %ref.tmp7, align 8
  %vfn.i = getelementptr inbounds i8, ptr %vtable.i, i64 16
  %5 = load ptr, ptr %vfn.i, align 8
  %call.i13 = invoke noundef zeroext i1 %5(ptr noundef nonnull align 8 dereferenceable(8) %ref.tmp7)
          to label %call.i.noexc unwind label %lpad.split

call.i.noexc:                                     ; preds = %cond.false
  br i1 %call.i13, label %if.then.i, label %cleanup.action

if.then.i:                                        ; preds = %call.i.noexc
  %vtable2.i = load ptr, ptr %ref.tmp7, align 8
  %vfn3.i = getelementptr inbounds i8, ptr %vtable2.i, i64 24
  %6 = load ptr, ptr %vfn3.i, align 8
  %call4.i14 = invoke noundef nonnull align 8 dereferenceable(8) ptr %6(ptr noundef nonnull align 8 dereferenceable(8) %ref.tmp7)
          to label %call4.i.noexc unwind label %lpad.split

call4.i.noexc:                                    ; preds = %if.then.i
  %call5.i15 = invoke noundef nonnull align 8 dereferenceable(8) ptr @_ZStlsISt11char_traitsIcEERSt13basic_ostreamIcT_ES5_PKc(ptr noundef nonnull align 8 dereferenceable(8) %call4.i14, ptr noundef nonnull @.str.33)
          to label %cleanup.action unwind label %lpad.split

cleanup.action:                                   ; preds = %call4.i.noexc, %call.i.noexc
  call void @_ZN5arrow4util8ArrowLogD1Ev(ptr noundef nonnull align 8 dereferenceable(17) %ref.tmp7) #18
  br label %cleanup.done

cleanup.done:                                     ; preds = %for.body, %cleanup.action
  %add22 = add i64 %.sroa.speculated, %posn.023
  %cmp = icmp ult i64 %add22, %input.coerce0
  br i1 %cmp, label %for.body, label %for.end23, !llvm.loop !217

lpad.split:                                       ; preds = %call4.i.noexc, %if.then.i, %cond.false
  %7 = landingpad { ptr, i32 }
          cleanup
  br label %lpad

lpad:                                             ; preds = %lpad.split.us, %lpad.split
  %.us-phi = phi { ptr, i32 } [ %7, %lpad.split ], [ %4, %lpad.split.us ]
  call void @_ZN5arrow4util8ArrowLogD1Ev(ptr noundef nonnull align 8 dereferenceable(17) %ref.tmp7) #18
  resume { ptr, i32 } %.us-phi

for.end23:                                        ; preds = %for.cond13.for.end_crit_edge.us, %cleanup.done, %entry
  ret void
}